; Function Attrs: mustprogress nounwind uwtable
define hidden noundef zeroext i1 @_ZN6hermes9compileJSERKNSt7__cxx1112basic_stringIcSt11char_traitsIcESaIcEEERS5_b(ptr noundef nonnull align 8 dereferenceable(32) %str, ptr noundef nonnull align 8 dereferenceable(32) %bytecode, i1 noundef zeroext %optimize) local_unnamed_addr #0 {
entry:
  %ref.tmp = alloca %"class.std::__cxx11::basic_string", align 8
  %ref.tmp1 = alloca %"class.std::allocator.31", align 1
  %agg.tmp = alloca %"class.std::optional", align 8
  call void @_ZNSaIcEC1Ev(ptr noundef nonnull align 1 dereferenceable(1) %ref.tmp1) #12
  %call.i = call noundef ptr @_ZNSt7__cxx1112basic_stringIcSt11char_traitsIcESaIcEE13_M_local_dataEv(ptr noundef nonnull align 8 dereferenceable(32) %ref.tmp) #12
  call void @_ZNSt7__cxx1112basic_stringIcSt11char_traitsIcESaIcEE12_Alloc_hiderC1EPcRKS3_(ptr noundef nonnull align 8 dereferenceable(8) %ref.tmp, ptr noundef %call.i, ptr noundef nonnull align 1 dereferenceable(1) %ref.tmp1) #12
  call void @_ZNSt7__cxx1112basic_stringIcSt11char_traitsIcESaIcEE12_M_constructIPKcEEvT_S8_St20forward_iterator_tag(ptr noundef nonnull align 8 dereferenceable(32) %ref.tmp, ptr noundef nonnull @.str, ptr noundef nonnull @.str)
  %_M_engaged.i.i.i.i = getelementptr inbounds i8, ptr %agg.tmp, i64 16
  store i8 0, ptr %_M_engaged.i.i.i.i, align 8
  %call = call noundef zeroext i1 @_ZN6hermes9compileJSERKNSt7__cxx1112basic_stringIcSt11char_traitsIcESaIcEEES7_RS5_bbPNS_17DiagnosticHandlerESt8optionalISt17basic_string_viewIcS3_EEb(ptr noundef nonnull align 8 dereferenceable(32) %str, ptr noundef nonnull align 8 dereferenceable(32) %ref.tmp, ptr noundef nonnull align 8 dereferenceable(32) %bytecode, i1 noundef zeroext %optimize, i1 noundef zeroext false, ptr noundef null, ptr noundef nonnull byval(%"class.std::optional") align 8 %agg.tmp, i1 noundef zeroext false)
  call void @_ZNSt7__cxx1112basic_stringIcSt11char_traitsIcESaIcEED1Ev(ptr noundef nonnull align 8 dereferenceable(32) %ref.tmp) #12
  call void @_ZNSaIcED1Ev(ptr noundef nonnull align 1 dereferenceable(1) %ref.tmp1) #12
  ret i1 %call
}